; ModuleID = '50/1613.c'
source_filename = "50/1613.c"
target datalayout = "e-m:e-p270:32:32-p271:32:32-p272:64:64-i64:64-f80:128-n8:16:32:64-S128"
target triple = "x86_64-pc-linux-gnu"

@.str = private unnamed_addr constant [3 x i8] c"%d\00", align 1
@.str.1 = private unnamed_addr constant [3 x i8] c"1\0A\00", align 1
@.str.2 = private unnamed_addr constant [4 x i8] c"%d\0A\00", align 1

; Function Attrs: noinline nounwind uwtable
define dso_local i32 @main() #0 {
  %1 = alloca i32, align 4
  %2 = alloca i32, align 4
  %3 = alloca i32, align 4
  %4 = alloca i32, align 4
  %5 = alloca i32, align 4
  %6 = alloca i32, align 4
  store i32 0, i32* %1, align 4
  store i32 0, i32* %6, align 4
  %7 = call i32 (i8*, ...) @__isoc99_scanf(i8* getelementptr inbounds ([3 x i8], [3 x i8]* @.str, i64 0, i64 0), i32* %2)
  %8 = load i32, i32* %2, align 4
  %9 = add nsw i32 7, %8
  store i32 %9, i32* %6, align 4
  %10 = load i32, i32* %6, align 4
  %11 = srem i32 %10, 7
  %12 = icmp eq i32 %11, 0
  br i1 %12, label %13, label %15

13:                                               ; preds = %0
  %14 = call i32 (i8*, ...) @printf(i8* getelementptr inbounds ([3 x i8], [3 x i8]* @.str.1, i64 0, i64 0))
  br label %15

15:                                               ; preds = %13, %0
  store i32 1, i32* %3, align 4
  br label %16

16:                                               ; preds = %70, %15
  %17 = load i32, i32* %3, align 4
  %18 = icmp slt i32 %17, 12
  br i1 %18, label %19, label %73

19:                                               ; preds = %16
  %20 = load i32, i32* %3, align 4
  %21 = icmp eq i32 %20, 1
  br i1 %21, label %37, label %22

22:                                               ; preds = %19
  %23 = load i32, i32* %3, align 4
  %24 = icmp eq i32 %23, 3
  br i1 %24, label %37, label %25

25:                                               ; preds = %22
  %26 = load i32, i32* %3, align 4
  %27 = icmp eq i32 %26, 5
  br i1 %27, label %37, label %28

28:                                               ; preds = %25
  %29 = load i32, i32* %3, align 4
  %30 = icmp eq i32 %29, 7
  br i1 %30, label %37, label %31

31:                                               ; preds = %28
  %32 = load i32, i32* %3, align 4
  %33 = icmp eq i32 %32, 8
  br i1 %33, label %37, label %34

34:                                               ; preds = %31
  %35 = load i32, i32* %3, align 4
  %36 = icmp eq i32 %35, 10
  br i1 %36, label %37, label %40

37:                                               ; preds = %34, %31, %28, %25, %22, %19
  %38 = load i32, i32* %6, align 4
  %39 = add nsw i32 %38, 31
  store i32 %39, i32* %6, align 4
  br label %40

40:                                               ; preds = %37, %34
  %41 = load i32, i32* %3, align 4
  %42 = icmp eq i32 %41, 4
  br i1 %42, label %52, label %43

43:                                               ; preds = %40
  %44 = load i32, i32* %3, align 4
  %45 = icmp eq i32 %44, 6
  br i1 %45, label %52, label %46

46:                                               ; preds = %43
  %47 = load i32, i32* %3, align 4
  %48 = icmp eq i32 %47, 9
  br i1 %48, label %52, label %49

49:                                               ; preds = %46
  %50 = load i32, i32* %3, align 4
  %51 = icmp eq i32 %50, 11
  br i1 %51, label %52, label %55

52:                                               ; preds = %49, %46, %43, %40
  %53 = load i32, i32* %6, align 4
  %54 = add nsw i32 %53, 30
  store i32 %54, i32* %6, align 4
  br label %55

55:                                               ; preds = %52, %49
  %56 = load i32, i32* %3, align 4
  %57 = icmp eq i32 %56, 28
  br i1 %57, label %58, label %61

58:                                               ; preds = %55
  %59 = load i32, i32* %6, align 4
  %60 = add nsw i32 %59, 28
  store i32 %60, i32* %6, align 4
  br label %61

61:                                               ; preds = %58, %55
  %62 = load i32, i32* %6, align 4
  %63 = srem i32 %62, 7
  %64 = icmp eq i32 %63, 0
  br i1 %64, label %65, label %69

65:                                               ; preds = %61
  %66 = load i32, i32* %3, align 4
  %67 = add nsw i32 %66, 1
  %68 = call i32 (i8*, ...) @printf(i8* getelementptr inbounds ([4 x i8], [4 x i8]* @.str.2, i64 0, i64 0), i32 %67)
  br label %69

69:                                               ; preds = %65, %61
  br label %70

70:                                               ; preds = %69
  %71 = load i32, i32* %3, align 4
  %72 = add nsw i32 %71, 1
  store i32 %72, i32* %3, align 4
  br label %16

73:                                               ; preds = %16
  ret i32 0
}

declare dso_local i32 @__isoc99_scanf(i8*, ...) #1

declare dso_local i32 @printf(i8*, ...) #1


!llvm.module.flags = !{!0}
!llvm.ident = !{!1}

!0 = !{i32 1, !"wchar_size", i32 4}
!1 = !{!"clang version 10.0.0-4ubuntu1 "}
